target datalayout = "e-m:e-p270:32:32-p271:32:32-p272:64:64-i64:64-i128:128-f80:128-n8:16:32:64-S128"
target triple = "x86_64-pc-linux-gnu"

%struct.stat = type { i64, i64, i64, i32, i32, i32, i32, i64, i64, i64, i64, %struct.timespec, %struct.timespec, %struct.timespec, [3 x i64] }
%struct.timespec = type { i64, i64 }

@.str.14 = private unnamed_addr constant [48 x i8] c"copy_some_to_file: panic: starting > startout?\0A\00", align 1
@.str.15 = private unnamed_addr constant [18 x i8] c"Can't stat file \0A\00", align 1
@.str.16 = private unnamed_addr constant [13 x i8] c"Read error \0A\00", align 1
@.str.17 = private unnamed_addr constant [14 x i8] c"Write error \0A\00", align 1

; Function Attrs: nounwind uwtable
define dso_local i64 @copy_some_to_file(i32 noundef %0, i32 noundef %1, i64 noundef %2, i64 noundef %3, i64 noundef %4) #0 {
  %6 = alloca i64, align 8
  %7 = alloca i32, align 4
  %8 = alloca i32, align 4
  %9 = alloca i64, align 8
  %10 = alloca i64, align 8
  %11 = alloca i64, align 8
  %12 = alloca [1024 x i8], align 16
  %13 = alloca %struct.stat, align 8
  %14 = alloca i32, align 4
  %15 = alloca i64, align 8
  %16 = alloca i64, align 8
  %17 = alloca i64, align 8
  %18 = alloca i64, align 8
  %19 = alloca i64, align 8
  %20 = alloca i64, align 8
  %21 = alloca i64, align 8
  %22 = alloca i32, align 4
  store i32 %0, ptr %7, align 4, !tbaa !4
  store i32 %1, ptr %8, align 4, !tbaa !4
  store i64 %2, ptr %9, align 8, !tbaa !17
  store i64 %3, ptr %10, align 8, !tbaa !17
  store i64 %4, ptr %11, align 8, !tbaa !17
  call void @llvm.lifetime.start.p0(i64 1024, ptr %12) #6
  call void @llvm.lifetime.start.p0(i64 144, ptr %13) #6
  call void @llvm.lifetime.start.p0(i64 4, ptr %14) #6
  call void @llvm.lifetime.start.p0(i64 8, ptr %15) #6
  store i64 0, ptr %15, align 8, !tbaa !17
  call void @llvm.lifetime.start.p0(i64 8, ptr %16) #6
  store i64 0, ptr %16, align 8, !tbaa !17
  call void @llvm.lifetime.start.p0(i64 8, ptr %17) #6
  store i64 -1, ptr %17, align 8, !tbaa !17
  call void @llvm.lifetime.start.p0(i64 8, ptr %18) #6
  call void @llvm.lifetime.start.p0(i64 8, ptr %19) #6
  call void @llvm.lifetime.start.p0(i64 8, ptr %20) #6
  call void @llvm.lifetime.start.p0(i64 8, ptr %21) #6
  %23 = load i64, ptr %9, align 8, !tbaa !17
  %24 = load i64, ptr %10, align 8, !tbaa !17
  %25 = icmp ugt i64 %23, %24
  br i1 %25, label %26, label %27

26:                                               ; preds = %5
  call void (ptr, ...) @error_msg(ptr noundef @.str.14)
  call void @exit(i32 noundef 1) #7
  unreachable

27:                                               ; preds = %5
  %28 = load i64, ptr %11, align 8, !tbaa !17
  %29 = icmp slt i64 %28, 0
  br i1 %29, label %30, label %39

30:                                               ; preds = %27
  call void @llvm.memset.p0.i64(ptr align 8 %13, i8 0, i64 144, i1 false)
  %31 = load i32, ptr %7, align 4, !tbaa !4
  %32 = call i32 @fstat64(i32 noundef %31, ptr noundef %13) #6
  store i32 %32, ptr %14, align 4, !tbaa !4
  %33 = load i32, ptr %14, align 4, !tbaa !4
  %34 = icmp slt i32 %33, 0
  br i1 %34, label %35, label %36

35:                                               ; preds = %30
  call void (ptr, ...) @error_msg(ptr noundef @.str.15)
  call void @exit(i32 noundef 1) #7
  unreachable

36:                                               ; preds = %30
  %37 = getelementptr inbounds nuw %struct.stat, ptr %13, i32 0, i32 8
  %38 = load i64, ptr %37, align 8, !tbaa !19
  store i64 %38, ptr %16, align 8, !tbaa !17
  br label %41

39:                                               ; preds = %27
  %40 = load i64, ptr %11, align 8, !tbaa !17
  store i64 %40, ptr %16, align 8, !tbaa !17
  br label %41

41:                                               ; preds = %39, %36
  %42 = load i64, ptr %16, align 8, !tbaa !17
  %43 = icmp eq i64 0, %42
  br i1 %43, label %44, label %45

44:                                               ; preds = %41
  store i64 0, ptr %6, align 8
  store i32 1, ptr %22, align 4
  br label %131

45:                                               ; preds = %41
  %46 = load i64, ptr %10, align 8, !tbaa !17
  %47 = load i64, ptr %16, align 8, !tbaa !17
  %48 = add nsw i64 %46, %47
  store i64 %48, ptr %20, align 8, !tbaa !17
  %49 = load i64, ptr %9, align 8, !tbaa !17
  %50 = load i64, ptr %16, align 8, !tbaa !17
  %51 = add nsw i64 %49, %50
  store i64 %51, ptr %21, align 8, !tbaa !17
  %52 = load i64, ptr %16, align 8, !tbaa !17
  %53 = icmp sgt i64 %52, 512
  br i1 %53, label %54, label %59

54:                                               ; preds = %45
  %55 = load i64, ptr %20, align 8, !tbaa !17
  %56 = sub nsw i64 %55, 512
  store i64 %56, ptr %18, align 8, !tbaa !17
  %57 = load i64, ptr %21, align 8, !tbaa !17
  %58 = sub nsw i64 %57, 512
  store i64 %58, ptr %19, align 8, !tbaa !17
  br label %66

59:                                               ; preds = %45
  %60 = load i64, ptr %20, align 8, !tbaa !17
  %61 = load i64, ptr %16, align 8, !tbaa !17
  %62 = sub nsw i64 %60, %61
  store i64 %62, ptr %18, align 8, !tbaa !17
  %63 = load i64, ptr %21, align 8, !tbaa !17
  %64 = load i64, ptr %16, align 8, !tbaa !17
  %65 = sub nsw i64 %63, %64
  store i64 %65, ptr %19, align 8, !tbaa !17
  br label %66

66:                                               ; preds = %59, %54
  br label %67

67:                                               ; preds = %126, %66
  %68 = load i64, ptr %16, align 8, !tbaa !17
  %69 = icmp sgt i64 %68, 0
  br i1 %69, label %70, label %127

70:                                               ; preds = %67
  %71 = load i32, ptr %8, align 4, !tbaa !4
  %72 = load i64, ptr %18, align 8, !tbaa !17
  %73 = call i64 @lseek64(i32 noundef %71, i64 noundef %72, i32 noundef 0) #6
  %74 = load i32, ptr %7, align 4, !tbaa !4
  %75 = load i64, ptr %19, align 8, !tbaa !17
  %76 = call i64 @lseek64(i32 noundef %74, i64 noundef %75, i32 noundef 0) #6
  %77 = load i64, ptr %16, align 8, !tbaa !17
  %78 = icmp sgt i64 %77, 512
  br i1 %78, label %79, label %83

79:                                               ; preds = %70
  %80 = load i32, ptr %7, align 4, !tbaa !4
  %81 = getelementptr inbounds [1024 x i8], ptr %12, i64 0, i64 0
  %82 = call i64 @read(i32 noundef %80, ptr noundef %81, i64 noundef 512)
  store i64 %82, ptr %17, align 8, !tbaa !17
  br label %90

83:                                               ; preds = %70
  %84 = load i32, ptr %7, align 4, !tbaa !4
  %85 = getelementptr inbounds [1024 x i8], ptr %12, i64 0, i64 0
  %86 = load i64, ptr %16, align 8, !tbaa !17
  %87 = trunc i64 %86 to i32
  %88 = zext i32 %87 to i64
  %89 = call i64 @read(i32 noundef %84, ptr noundef %85, i64 noundef %88)
  store i64 %89, ptr %17, align 8, !tbaa !17
  br label %90

90:                                               ; preds = %83, %79
  %91 = load i64, ptr %17, align 8, !tbaa !17
  %92 = icmp sle i64 %91, 0
  br i1 %92, label %93, label %94

93:                                               ; preds = %90
  call void (ptr, ...) @error_msg(ptr noundef @.str.16)
  call void @exit(i32 noundef 1) #7
  unreachable

94:                                               ; preds = %90
  %95 = load i32, ptr %8, align 4, !tbaa !4
  %96 = getelementptr inbounds [1024 x i8], ptr %12, i64 0, i64 0
  %97 = load i64, ptr %17, align 8, !tbaa !17
  %98 = trunc i64 %97 to i32
  %99 = zext i32 %98 to i64
  %100 = call i64 @write(i32 noundef %95, ptr noundef %96, i64 noundef %99)
  %101 = icmp slt i64 %100, 0
  br i1 %101, label %102, label %103

102:                                              ; preds = %94
  call void (ptr, ...) @error_msg(ptr noundef @.str.17)
  call void @exit(i32 noundef 1) #7
  unreachable

103:                                              ; preds = %94
  %104 = load i64, ptr %17, align 8, !tbaa !17
  %105 = load i64, ptr %15, align 8, !tbaa !17
  %106 = add nsw i64 %105, %104
  store i64 %106, ptr %15, align 8, !tbaa !17
  %107 = load i64, ptr %17, align 8, !tbaa !17
  %108 = load i64, ptr %16, align 8, !tbaa !17
  %109 = sub nsw i64 %108, %107
  store i64 %109, ptr %16, align 8, !tbaa !17
  %110 = load i64, ptr %16, align 8, !tbaa !17
  %111 = icmp sgt i64 %110, 512
  br i1 %111, label %112, label %119

112:                                              ; preds = %103
  %113 = load i64, ptr %17, align 8, !tbaa !17
  %114 = load i64, ptr %18, align 8, !tbaa !17
  %115 = sub nsw i64 %114, %113
  store i64 %115, ptr %18, align 8, !tbaa !17
  %116 = load i64, ptr %17, align 8, !tbaa !17
  %117 = load i64, ptr %19, align 8, !tbaa !17
  %118 = sub nsw i64 %117, %116
  store i64 %118, ptr %19, align 8, !tbaa !17
  br label %126

119:                                              ; preds = %103
  %120 = load i64, ptr %16, align 8, !tbaa !17
  %121 = load i64, ptr %18, align 8, !tbaa !17
  %122 = sub nsw i64 %121, %120
  store i64 %122, ptr %18, align 8, !tbaa !17
  %123 = load i64, ptr %16, align 8, !tbaa !17
  %124 = load i64, ptr %19, align 8, !tbaa !17
  %125 = sub nsw i64 %124, %123
  store i64 %125, ptr %19, align 8, !tbaa !17
  br label %126

126:                                              ; preds = %119, %112
  br label %67, !llvm.loop !23

127:                                              ; preds = %67
  %128 = load i64, ptr %15, align 8, !tbaa !17
  %129 = load i64, ptr %10, align 8, !tbaa !17
  %130 = add i64 %128, %129
  store i64 %130, ptr %6, align 8
  store i32 1, ptr %22, align 4
  br label %131

131:                                              ; preds = %127, %44
  call void @llvm.lifetime.end.p0(i64 8, ptr %21) #6
  call void @llvm.lifetime.end.p0(i64 8, ptr %20) #6
  call void @llvm.lifetime.end.p0(i64 8, ptr %19) #6
  call void @llvm.lifetime.end.p0(i64 8, ptr %18) #6
  call void @llvm.lifetime.end.p0(i64 8, ptr %17) #6
  call void @llvm.lifetime.end.p0(i64 8, ptr %16) #6
  call void @llvm.lifetime.end.p0(i64 8, ptr %15) #6
  call void @llvm.lifetime.end.p0(i64 4, ptr %14) #6
  call void @llvm.lifetime.end.p0(i64 144, ptr %13) #6
  call void @llvm.lifetime.end.p0(i64 1024, ptr %12) #6
  %132 = load i64, ptr %6, align 8
  ret i64 %132
}