; Function Attrs: nounwind uwtable
define dso_local i64 @copy_some_to_file(i32 noundef %0, i32 noundef %1, i64 noundef %2, i64 noundef %3, i64 noundef %4) local_unnamed_addr #0 {
  %6 = alloca [1024 x i8], align 16
  %7 = alloca %struct.stat, align 8
  call void @llvm.lifetime.start.p0(i64 1024, ptr nonnull %6) #15
  call void @llvm.lifetime.start.p0(i64 144, ptr nonnull %7) #15
  %8 = icmp ugt i64 %2, %3
  br i1 %8, label %9, label %10

9:                                                ; preds = %5
  tail call void (ptr, ...) @error_msg(ptr noundef nonnull @.str.14) #15
  tail call void @exit(i32 noundef 1) #17
  unreachable

10:                                               ; preds = %5
  %11 = icmp slt i64 %4, 0
  br i1 %11, label %12, label %19

12:                                               ; preds = %10
  call void @llvm.memset.p0.i64(ptr noundef nonnull align 8 dereferenceable(144) %7, i8 0, i64 144, i1 false)
  %13 = call i32 @fstat64(i32 noundef %0, ptr noundef nonnull %7) #15
  %14 = icmp slt i32 %13, 0
  br i1 %14, label %15, label %16

15:                                               ; preds = %12
  tail call void (ptr, ...) @error_msg(ptr noundef nonnull @.str.15) #15
  tail call void @exit(i32 noundef 1) #17
  unreachable

16:                                               ; preds = %12
  %17 = getelementptr inbounds nuw i8, ptr %7, i64 48
  %18 = load i64, ptr %17, align 8, !tbaa !13
  br label %19

19:                                               ; preds = %10, %16
  %.052 = phi i64 [ %18, %16 ], [ %4, %10 ]
  %20 = icmp eq i64 %.052, 0
  br i1 %20, label %44, label %21

21:                                               ; preds = %19
  %22 = icmp sgt i64 %.052, 0
  br i1 %22, label %.lr.ph.preheader, label %._crit_edge

.lr.ph.preheader:                                 ; preds = %21
  %23 = icmp samesign ugt i64 %.052, 512
  %24 = add i64 %2, -512
  %25 = add i64 %24, %.052
  %.047 = select i1 %23, i64 %25, i64 %2
  %26 = add i64 %3, -512
  %27 = add i64 %26, %.052
  %.048 = select i1 %23, i64 %27, i64 %3
  br label %.lr.ph

.lr.ph:                                           ; preds = %.lr.ph.preheader, %38
  %.04664 = phi i64 [ %39, %38 ], [ 0, %.lr.ph.preheader ]
  %.163 = phi i64 [ %.2, %38 ], [ %.047, %.lr.ph.preheader ]
  %.14962 = phi i64 [ %.250, %38 ], [ %.048, %.lr.ph.preheader ]
  %.15361 = phi i64 [ %40, %38 ], [ %.052, %.lr.ph.preheader ]
  %28 = tail call i64 @lseek64(i32 noundef %1, i64 noundef %.14962, i32 noundef 0) #15
  %29 = tail call i64 @lseek64(i32 noundef %0, i64 noundef %.163, i32 noundef 0) #15
  %..15361 = tail call i64 @llvm.umin.i64(i64 %.15361, i64 512)
  %30 = call i64 @read(i32 noundef %0, ptr noundef nonnull %6, i64 noundef %..15361) #15
  %31 = icmp slt i64 %30, 1
  br i1 %31, label %32, label %33

32:                                               ; preds = %.lr.ph
  tail call void (ptr, ...) @error_msg(ptr noundef nonnull @.str.16) #15
  tail call void @exit(i32 noundef 1) #17
  unreachable

33:                                               ; preds = %.lr.ph
  %34 = and i64 %30, 4294967295
  %35 = call i64 @write(i32 noundef %1, ptr noundef nonnull %6, i64 noundef %34) #15
  %36 = icmp slt i64 %35, 0
  br i1 %36, label %37, label %38

37:                                               ; preds = %33
  tail call void (ptr, ...) @error_msg(ptr noundef nonnull @.str.17) #15
  tail call void @exit(i32 noundef 1) #17
  unreachable

38:                                               ; preds = %33
  %39 = add nuw nsw i64 %30, %.04664
  %40 = sub nsw i64 %.15361, %30
  %41 = icmp sgt i64 %40, 512
  %.051. = select i1 %41, i64 %30, i64 %40
  %.2 = sub nsw i64 %.163, %.051.
  %.250 = sub nsw i64 %.14962, %.051.
  %42 = icmp sgt i64 %40, 0
  br i1 %42, label %.lr.ph, label %._crit_edge, !llvm.loop !20

._crit_edge:                                      ; preds = %38, %21
  %.046.lcssa = phi i64 [ 0, %21 ], [ %39, %38 ]
  %43 = add i64 %.046.lcssa, %3
  br label %44

44:                                               ; preds = %19, %._crit_edge
  %.0 = phi i64 [ %43, %._crit_edge ], [ 0, %19 ]
  call void @llvm.lifetime.end.p0(i64 144, ptr nonnull %7) #15
  call void @llvm.lifetime.end.p0(i64 1024, ptr nonnull %6) #15
  ret i64 %.0
}